target datalayout = "e-m:e-p270:32:32-p271:32:32-p272:64:64-i64:64-i128:128-f80:128-n8:16:32:64-S128"
target triple = "x86_64-pc-linux-gnu"

; Function Attrs: nounwind uwtable
define hidden void @PMurHash128x86_Result(ptr noundef %0, ptr noundef %1, i32 noundef %2, ptr noundef %3) #0 {
  %5 = alloca i32, align 4
  %6 = alloca i32, align 4
  %7 = alloca i32, align 4
  %8 = alloca i32, align 4
  %9 = alloca ptr, align 8
  %10 = alloca ptr, align 8
  %11 = alloca i32, align 4
  %12 = alloca ptr, align 8
  %13 = alloca i32, align 4
  %14 = alloca i32, align 4
  %15 = alloca i32, align 4
  %16 = alloca i32, align 4
  %17 = alloca i32, align 4
  %18 = alloca i32, align 4
  %19 = alloca i32, align 4
  %20 = alloca i32, align 4
  %21 = alloca i32, align 4
  store ptr %0, ptr %9, align 8
  store ptr %1, ptr %10, align 8
  store i32 %2, ptr %11, align 4
  store ptr %3, ptr %12, align 8
  %22 = load ptr, ptr %9, align 8
  %23 = getelementptr inbounds i32, ptr %22, i64 0
  %24 = load i32, ptr %23, align 4
  store i32 %24, ptr %13, align 4
  %25 = load ptr, ptr %9, align 8
  %26 = getelementptr inbounds i32, ptr %25, i64 1
  %27 = load i32, ptr %26, align 4
  store i32 %27, ptr %14, align 4
  %28 = load ptr, ptr %9, align 8
  %29 = getelementptr inbounds i32, ptr %28, i64 2
  %30 = load i32, ptr %29, align 4
  store i32 %30, ptr %15, align 4
  %31 = load ptr, ptr %9, align 8
  %32 = getelementptr inbounds i32, ptr %31, i64 3
  %33 = load i32, ptr %32, align 4
  store i32 %33, ptr %16, align 4
  %34 = load ptr, ptr %10, align 8
  %35 = getelementptr inbounds i32, ptr %34, i64 3
  %36 = load i32, ptr %35, align 4
  store i32 %36, ptr %20, align 4
  %37 = load i32, ptr %20, align 4
  %38 = and i32 %37, 15
  store i32 %38, ptr %21, align 4
  %39 = load i32, ptr %21, align 4
  switch i32 %39, label %70 [
    i32 1, label %40
    i32 2, label %40
    i32 3, label %40
    i32 4, label %40
    i32 5, label %48
    i32 6, label %48
    i32 7, label %48
    i32 8, label %48
    i32 9, label %56
    i32 10, label %56
    i32 11, label %56
    i32 12, label %56
    i32 13, label %64
    i32 14, label %64
    i32 15, label %64
  ]

40:                                               ; preds = %4, %4, %4, %4
  %41 = load ptr, ptr %10, align 8
  %42 = getelementptr inbounds i32, ptr %41, i64 0
  %43 = load i32, ptr %42, align 4
  %44 = load i32, ptr %21, align 4
  %45 = sub nsw i32 4, %44
  %46 = mul nsw i32 %45, 8
  %47 = lshr i32 %43, %46
  store i32 %47, ptr %17, align 4
  br label %119

48:                                               ; preds = %4, %4, %4, %4
  %49 = load ptr, ptr %10, align 8
  %50 = getelementptr inbounds i32, ptr %49, i64 1
  %51 = load i32, ptr %50, align 4
  %52 = load i32, ptr %21, align 4
  %53 = sub nsw i32 8, %52
  %54 = mul nsw i32 %53, 8
  %55 = lshr i32 %51, %54
  store i32 %55, ptr %18, align 4
  br label %103

56:                                               ; preds = %4, %4, %4, %4
  %57 = load ptr, ptr %10, align 8
  %58 = getelementptr inbounds i32, ptr %57, i64 2
  %59 = load i32, ptr %58, align 4
  %60 = load i32, ptr %21, align 4
  %61 = sub nsw i32 12, %60
  %62 = mul nsw i32 %61, 8
  %63 = lshr i32 %59, %62
  store i32 %63, ptr %19, align 4
  br label %87

64:                                               ; preds = %4, %4, %4
  %65 = load i32, ptr %21, align 4
  %66 = sub nsw i32 16, %65
  %67 = mul nsw i32 %66, 8
  %68 = load i32, ptr %20, align 4
  %69 = lshr i32 %68, %67
  store i32 %69, ptr %20, align 4
  br label %71

70:                                               ; preds = %4
  br label %132

71:                                               ; preds = %64
  %72 = load i32, ptr %20, align 4
  %73 = mul i32 %72, -1578923117
  store i32 %73, ptr %20, align 4
  %74 = load i32, ptr %20, align 4
  %75 = shl i32 %74, 18
  %76 = load i32, ptr %20, align 4
  %77 = lshr i32 %76, 14
  %78 = or i32 %75, %77
  store i32 %78, ptr %20, align 4
  %79 = load i32, ptr %20, align 4
  %80 = mul i32 %79, 597399067
  store i32 %80, ptr %20, align 4
  %81 = load i32, ptr %20, align 4
  %82 = load i32, ptr %16, align 4
  %83 = xor i32 %82, %81
  store i32 %83, ptr %16, align 4
  %84 = load ptr, ptr %10, align 8
  %85 = getelementptr inbounds i32, ptr %84, i64 2
  %86 = load i32, ptr %85, align 4
  store i32 %86, ptr %19, align 4
  br label %87

87:                                               ; preds = %71, %56
  %88 = load i32, ptr %19, align 4
  %89 = mul i32 %88, 951274213
  store i32 %89, ptr %19, align 4
  %90 = load i32, ptr %19, align 4
  %91 = shl i32 %90, 17
  %92 = load i32, ptr %19, align 4
  %93 = lshr i32 %92, 15
  %94 = or i32 %91, %93
  store i32 %94, ptr %19, align 4
  %95 = load i32, ptr %19, align 4
  %96 = mul i32 %95, -1578923117
  store i32 %96, ptr %19, align 4
  %97 = load i32, ptr %19, align 4
  %98 = load i32, ptr %15, align 4
  %99 = xor i32 %98, %97
  store i32 %99, ptr %15, align 4
  %100 = load ptr, ptr %10, align 8
  %101 = getelementptr inbounds i32, ptr %100, i64 1
  %102 = load i32, ptr %101, align 4
  store i32 %102, ptr %18, align 4
  br label %103

103:                                              ; preds = %87, %48
  %104 = load i32, ptr %18, align 4
  %105 = mul i32 %104, -1425107063
  store i32 %105, ptr %18, align 4
  %106 = load i32, ptr %18, align 4
  %107 = shl i32 %106, 16
  %108 = load i32, ptr %18, align 4
  %109 = lshr i32 %108, 16
  %110 = or i32 %107, %109
  store i32 %110, ptr %18, align 4
  %111 = load i32, ptr %18, align 4
  %112 = mul i32 %111, 951274213
  store i32 %112, ptr %18, align 4
  %113 = load i32, ptr %18, align 4
  %114 = load i32, ptr %14, align 4
  %115 = xor i32 %114, %113
  store i32 %115, ptr %14, align 4
  %116 = load ptr, ptr %10, align 8
  %117 = getelementptr inbounds i32, ptr %116, i64 0
  %118 = load i32, ptr %117, align 4
  store i32 %118, ptr %17, align 4
  br label %119

119:                                              ; preds = %103, %40
  %120 = load i32, ptr %17, align 4
  %121 = mul i32 %120, 597399067
  store i32 %121, ptr %17, align 4
  %122 = load i32, ptr %17, align 4
  %123 = shl i32 %122, 15
  %124 = load i32, ptr %17, align 4
  %125 = lshr i32 %124, 17
  %126 = or i32 %123, %125
  store i32 %126, ptr %17, align 4
  %127 = load i32, ptr %17, align 4
  %128 = mul i32 %127, -1425107063
  store i32 %128, ptr %17, align 4
  %129 = load i32, ptr %17, align 4
  %130 = load i32, ptr %13, align 4
  %131 = xor i32 %130, %129
  store i32 %131, ptr %13, align 4
  br label %132

132:                                              ; preds = %119, %70
  %133 = load i32, ptr %11, align 4
  %134 = load i32, ptr %13, align 4
  %135 = xor i32 %134, %133
  store i32 %135, ptr %13, align 4
  %136 = load i32, ptr %11, align 4
  %137 = load i32, ptr %14, align 4
  %138 = xor i32 %137, %136
  store i32 %138, ptr %14, align 4
  %139 = load i32, ptr %11, align 4
  %140 = load i32, ptr %15, align 4
  %141 = xor i32 %140, %139
  store i32 %141, ptr %15, align 4
  %142 = load i32, ptr %11, align 4
  %143 = load i32, ptr %16, align 4
  %144 = xor i32 %143, %142
  store i32 %144, ptr %16, align 4
  %145 = load i32, ptr %14, align 4
  %146 = load i32, ptr %13, align 4
  %147 = add i32 %146, %145
  store i32 %147, ptr %13, align 4
  %148 = load i32, ptr %15, align 4
  %149 = load i32, ptr %13, align 4
  %150 = add i32 %149, %148
  store i32 %150, ptr %13, align 4
  %151 = load i32, ptr %16, align 4
  %152 = load i32, ptr %13, align 4
  %153 = add i32 %152, %151
  store i32 %153, ptr %13, align 4
  %154 = load i32, ptr %13, align 4
  %155 = load i32, ptr %14, align 4
  %156 = add i32 %155, %154
  store i32 %156, ptr %14, align 4
  %157 = load i32, ptr %13, align 4
  %158 = load i32, ptr %15, align 4
  %159 = add i32 %158, %157
  store i32 %159, ptr %15, align 4
  %160 = load i32, ptr %13, align 4
  %161 = load i32, ptr %16, align 4
  %162 = add i32 %161, %160
  store i32 %162, ptr %16, align 4
  %163 = load i32, ptr %13, align 4
  store i32 %163, ptr %5, align 4
  %164 = load i32, ptr %5, align 4
  %165 = lshr i32 %164, 16
  %166 = load i32, ptr %5, align 4
  %167 = xor i32 %166, %165
  store i32 %167, ptr %5, align 4
  %168 = load i32, ptr %5, align 4
  %169 = mul i32 %168, -2048144789
  store i32 %169, ptr %5, align 4
  %170 = load i32, ptr %5, align 4
  %171 = lshr i32 %170, 13
  %172 = load i32, ptr %5, align 4
  %173 = xor i32 %172, %171
  store i32 %173, ptr %5, align 4
  %174 = load i32, ptr %5, align 4
  %175 = mul i32 %174, -1028477387
  store i32 %175, ptr %5, align 4
  %176 = load i32, ptr %5, align 4
  %177 = lshr i32 %176, 16
  %178 = load i32, ptr %5, align 4
  %179 = xor i32 %178, %177
  store i32 %179, ptr %5, align 4
  %180 = load i32, ptr %5, align 4
  store i32 %180, ptr %13, align 4
  %181 = load i32, ptr %14, align 4
  store i32 %181, ptr %6, align 4
  %182 = load i32, ptr %6, align 4
  %183 = lshr i32 %182, 16
  %184 = load i32, ptr %6, align 4
  %185 = xor i32 %184, %183
  store i32 %185, ptr %6, align 4
  %186 = load i32, ptr %6, align 4
  %187 = mul i32 %186, -2048144789
  store i32 %187, ptr %6, align 4
  %188 = load i32, ptr %6, align 4
  %189 = lshr i32 %188, 13
  %190 = load i32, ptr %6, align 4
  %191 = xor i32 %190, %189
  store i32 %191, ptr %6, align 4
  %192 = load i32, ptr %6, align 4
  %193 = mul i32 %192, -1028477387
  store i32 %193, ptr %6, align 4
  %194 = load i32, ptr %6, align 4
  %195 = lshr i32 %194, 16
  %196 = load i32, ptr %6, align 4
  %197 = xor i32 %196, %195
  store i32 %197, ptr %6, align 4
  %198 = load i32, ptr %6, align 4
  store i32 %198, ptr %14, align 4
  %199 = load i32, ptr %15, align 4
  store i32 %199, ptr %7, align 4
  %200 = load i32, ptr %7, align 4
  %201 = lshr i32 %200, 16
  %202 = load i32, ptr %7, align 4
  %203 = xor i32 %202, %201
  store i32 %203, ptr %7, align 4
  %204 = load i32, ptr %7, align 4
  %205 = mul i32 %204, -2048144789
  store i32 %205, ptr %7, align 4
  %206 = load i32, ptr %7, align 4
  %207 = lshr i32 %206, 13
  %208 = load i32, ptr %7, align 4
  %209 = xor i32 %208, %207
  store i32 %209, ptr %7, align 4
  %210 = load i32, ptr %7, align 4
  %211 = mul i32 %210, -1028477387
  store i32 %211, ptr %7, align 4
  %212 = load i32, ptr %7, align 4
  %213 = lshr i32 %212, 16
  %214 = load i32, ptr %7, align 4
  %215 = xor i32 %214, %213
  store i32 %215, ptr %7, align 4
  %216 = load i32, ptr %7, align 4
  store i32 %216, ptr %15, align 4
  %217 = load i32, ptr %16, align 4
  store i32 %217, ptr %8, align 4
  %218 = load i32, ptr %8, align 4
  %219 = lshr i32 %218, 16
  %220 = load i32, ptr %8, align 4
  %221 = xor i32 %220, %219
  store i32 %221, ptr %8, align 4
  %222 = load i32, ptr %8, align 4
  %223 = mul i32 %222, -2048144789
  store i32 %223, ptr %8, align 4
  %224 = load i32, ptr %8, align 4
  %225 = lshr i32 %224, 13
  %226 = load i32, ptr %8, align 4
  %227 = xor i32 %226, %225
  store i32 %227, ptr %8, align 4
  %228 = load i32, ptr %8, align 4
  %229 = mul i32 %228, -1028477387
  store i32 %229, ptr %8, align 4
  %230 = load i32, ptr %8, align 4
  %231 = lshr i32 %230, 16
  %232 = load i32, ptr %8, align 4
  %233 = xor i32 %232, %231
  store i32 %233, ptr %8, align 4
  %234 = load i32, ptr %8, align 4
  store i32 %234, ptr %16, align 4
  %235 = load i32, ptr %14, align 4
  %236 = load i32, ptr %13, align 4
  %237 = add i32 %236, %235
  store i32 %237, ptr %13, align 4
  %238 = load i32, ptr %15, align 4
  %239 = load i32, ptr %13, align 4
  %240 = add i32 %239, %238
  store i32 %240, ptr %13, align 4
  %241 = load i32, ptr %16, align 4
  %242 = load i32, ptr %13, align 4
  %243 = add i32 %242, %241
  store i32 %243, ptr %13, align 4
  %244 = load i32, ptr %13, align 4
  %245 = load i32, ptr %14, align 4
  %246 = add i32 %245, %244
  store i32 %246, ptr %14, align 4
  %247 = load i32, ptr %13, align 4
  %248 = load i32, ptr %15, align 4
  %249 = add i32 %248, %247
  store i32 %249, ptr %15, align 4
  %250 = load i32, ptr %13, align 4
  %251 = load i32, ptr %16, align 4
  %252 = add i32 %251, %250
  store i32 %252, ptr %16, align 4
  %253 = load i32, ptr %13, align 4
  %254 = load ptr, ptr %12, align 8
  %255 = getelementptr inbounds i32, ptr %254, i64 0
  store i32 %253, ptr %255, align 4
  %256 = load i32, ptr %14, align 4
  %257 = load ptr, ptr %12, align 8
  %258 = getelementptr inbounds i32, ptr %257, i64 1
  store i32 %256, ptr %258, align 4
  %259 = load i32, ptr %15, align 4
  %260 = load ptr, ptr %12, align 8
  %261 = getelementptr inbounds i32, ptr %260, i64 2
  store i32 %259, ptr %261, align 4
  %262 = load i32, ptr %16, align 4
  %263 = load ptr, ptr %12, align 8
  %264 = getelementptr inbounds i32, ptr %263, i64 3
  store i32 %262, ptr %264, align 4
  ret void
}