; Function Attrs: mustprogress nofree norecurse nosync nounwind willreturn memory(argmem: readwrite) uwtable
define hidden void @PMurHash128x86_Result(ptr nocapture noundef readonly %0, ptr nocapture noundef readonly %1, i32 noundef %2, ptr nocapture noundef writeonly %3) local_unnamed_addr #0 {
  %5 = load i32, ptr %0, align 4
  %6 = getelementptr inbounds i8, ptr %0, i64 4
  %7 = load i32, ptr %6, align 4
  %8 = getelementptr inbounds i8, ptr %0, i64 8
  %9 = load i32, ptr %8, align 4
  %10 = getelementptr inbounds i8, ptr %0, i64 12
  %11 = load i32, ptr %10, align 4
  %12 = getelementptr inbounds i8, ptr %1, i64 12
  %13 = load i32, ptr %12, align 4
  %14 = and i32 %13, 15
  switch i32 %14, label %68 [
    i32 1, label %15
    i32 2, label %15
    i32 3, label %15
    i32 4, label %15
    i32 5, label %20
    i32 6, label %20
    i32 7, label %20
    i32 8, label %20
    i32 9, label %26
    i32 10, label %26
    i32 11, label %26
    i32 12, label %26
    i32 13, label %32
    i32 14, label %32
    i32 15, label %32
  ]

15:                                               ; preds = %4, %4, %4, %4
  %16 = load i32, ptr %1, align 4
  %17 = shl nuw nsw i32 %14, 3
  %18 = sub nuw nsw i32 32, %17
  %19 = lshr i32 %16, %18
  br label %61

20:                                               ; preds = %4, %4, %4, %4
  %21 = getelementptr inbounds i8, ptr %1, i64 4
  %22 = load i32, ptr %21, align 4
  %23 = shl nuw nsw i32 %14, 3
  %24 = sub nuw nsw i32 64, %23
  %25 = lshr i32 %22, %24
  br label %53

26:                                               ; preds = %4, %4, %4, %4
  %27 = getelementptr inbounds i8, ptr %1, i64 8
  %28 = load i32, ptr %27, align 4
  %29 = shl nuw nsw i32 %14, 3
  %30 = sub nuw nsw i32 96, %29
  %31 = lshr i32 %28, %30
  br label %44

32:                                               ; preds = %4, %4, %4
  %33 = shl nuw nsw i32 %14, 3
  %34 = sub nuw nsw i32 128, %33
  %35 = lshr i32 %13, %34
  %36 = mul i32 %35, -1578923117
  %37 = mul i32 %35, 776732672
  %38 = lshr i32 %36, 14
  %39 = or disjoint i32 %38, %37
  %40 = mul i32 %39, 597399067
  %41 = xor i32 %40, %11
  %42 = getelementptr inbounds i8, ptr %1, i64 8
  %43 = load i32, ptr %42, align 4
  br label %44

44:                                               ; preds = %32, %26
  %.0124 = phi i32 [ %41, %32 ], [ %11, %26 ]
  %.0121 = phi i32 [ %43, %32 ], [ %31, %26 ]
  %45 = mul i32 %.0121, 951274213
  %46 = mul i32 %.0121, -1781923840
  %47 = lshr i32 %45, 15
  %48 = or disjoint i32 %47, %46
  %49 = mul i32 %48, -1578923117
  %50 = xor i32 %49, %9
  %51 = getelementptr inbounds i8, ptr %1, i64 4
  %52 = load i32, ptr %51, align 4
  br label %53

53:                                               ; preds = %44, %20
  %.0125 = phi i32 [ %50, %44 ], [ %9, %20 ]
  %.1 = phi i32 [ %.0124, %44 ], [ %11, %20 ]
  %.0122 = phi i32 [ %52, %44 ], [ %25, %20 ]
  %54 = mul i32 %.0122, -1425107063
  %55 = mul i32 %.0122, -1752629248
  %56 = lshr i32 %54, 16
  %57 = or disjoint i32 %56, %55
  %58 = mul i32 %57, 951274213
  %59 = xor i32 %58, %7
  %60 = load i32, ptr %1, align 4
  br label %61

61:                                               ; preds = %53, %15
  %.0128 = phi i32 [ %59, %53 ], [ %7, %15 ]
  %.1126 = phi i32 [ %.0125, %53 ], [ %9, %15 ]
  %.2 = phi i32 [ %.1, %53 ], [ %11, %15 ]
  %.0123 = phi i32 [ %60, %53 ], [ %19, %15 ]
  %62 = mul i32 %.0123, 597399067
  %63 = mul i32 %.0123, -888307712
  %64 = lshr i32 %62, 17
  %65 = or disjoint i32 %64, %63
  %66 = mul i32 %65, -1425107063
  %67 = xor i32 %66, %5
  br label %68

68:                                               ; preds = %4, %61
  %.1129 = phi i32 [ %7, %4 ], [ %.0128, %61 ]
  %.2127 = phi i32 [ %9, %4 ], [ %.1126, %61 ]
  %.3 = phi i32 [ %11, %4 ], [ %.2, %61 ]
  %.0 = phi i32 [ %5, %4 ], [ %67, %61 ]
  %69 = xor i32 %.0, %2
  %70 = xor i32 %.1129, %2
  %71 = xor i32 %.2127, %2
  %72 = xor i32 %.3, %2
  %73 = add i32 %71, %70
  %74 = add i32 %73, %72
  %75 = add i32 %74, %69
  %76 = add i32 %75, %70
  %77 = add i32 %75, %71
  %78 = add i32 %75, %72
  %79 = lshr i32 %75, 16
  %80 = xor i32 %79, %75
  %81 = mul i32 %80, -2048144789
  %82 = lshr i32 %81, 13
  %83 = xor i32 %82, %81
  %84 = mul i32 %83, -1028477387
  %85 = lshr i32 %84, 16
  %86 = xor i32 %85, %84
  %87 = lshr i32 %76, 16
  %88 = xor i32 %87, %76
  %89 = mul i32 %88, -2048144789
  %90 = lshr i32 %89, 13
  %91 = xor i32 %90, %89
  %92 = mul i32 %91, -1028477387
  %93 = lshr i32 %92, 16
  %94 = xor i32 %93, %92
  %95 = lshr i32 %77, 16
  %96 = xor i32 %95, %77
  %97 = mul i32 %96, -2048144789
  %98 = lshr i32 %97, 13
  %99 = xor i32 %98, %97
  %100 = mul i32 %99, -1028477387
  %101 = lshr i32 %100, 16
  %102 = xor i32 %101, %100
  %103 = lshr i32 %78, 16
  %104 = xor i32 %103, %78
  %105 = mul i32 %104, -2048144789
  %106 = lshr i32 %105, 13
  %107 = xor i32 %106, %105
  %108 = mul i32 %107, -1028477387
  %109 = lshr i32 %108, 16
  %110 = xor i32 %109, %108
  %111 = add i32 %94, %86
  %112 = add i32 %111, %102
  %113 = add i32 %112, %110
  %114 = add i32 %113, %94
  %115 = add i32 %113, %102
  %116 = add i32 %113, %110
  store i32 %113, ptr %3, align 4
  %117 = getelementptr inbounds i8, ptr %3, i64 4
  store i32 %114, ptr %117, align 4
  %118 = getelementptr inbounds i8, ptr %3, i64 8
  store i32 %115, ptr %118, align 4
  %119 = getelementptr inbounds i8, ptr %3, i64 12
  store i32 %116, ptr %119, align 4
  ret void
}